target datalayout = "e-m:e-p270:32:32-p271:32:32-p272:64:64-i64:64-i128:128-f80:128-n8:16:32:64-S128"
target triple = "x86_64-pc-linux-gnu"

%struct.compile_block_8 = type { ptr, ptr, ptr, ptr, ptr, ptr, ptr, ptr, ptr, ptr, i64, [10 x i64], i64, i16, i16, i16, i16, ptr, i32, i32, i32, i32, i32, ptr, ptr, ptr, i32, i32, i32, i32, i32, i32, [4 x i8], i32, i32, i32, i32, i32, i32, i32 }

@_pcre2_OP_lengths_8 = external constant [0 x i8], align 1

; Function Attrs: nounwind uwtable
define internal i32 @is_anchored(ptr noundef %0, i32 noundef %1, ptr noundef %2, i32 noundef %3, i32 noundef %4) #0 {
  %6 = alloca i32, align 4
  %7 = alloca ptr, align 8
  %8 = alloca i32, align 4
  %9 = alloca ptr, align 8
  %10 = alloca i32, align 4
  %11 = alloca i32, align 4
  %12 = alloca ptr, align 8
  %13 = alloca i32, align 4
  %14 = alloca i32, align 4
  %15 = alloca i32, align 4
  store ptr %0, ptr %7, align 8
  store i32 %1, ptr %8, align 4
  store ptr %2, ptr %9, align 8
  store i32 %3, ptr %10, align 4
  store i32 %4, ptr %11, align 4
  br label %16

16:                                               ; preds = %227, %5
  %17 = load ptr, ptr %7, align 8
  %18 = load ptr, ptr %7, align 8
  %19 = load i8, ptr %18, align 1
  %20 = zext i8 %19 to i64
  %21 = getelementptr inbounds [0 x i8], ptr @_pcre2_OP_lengths_8, i64 0, i64 %20
  %22 = load i8, ptr %21, align 1
  %23 = zext i8 %22 to i32
  %24 = sext i32 %23 to i64
  %25 = getelementptr inbounds i8, ptr %17, i64 %24
  %26 = call ptr @first_significant_code(ptr noundef %25, i32 noundef 0)
  store ptr %26, ptr %12, align 8
  %27 = load ptr, ptr %12, align 8
  %28 = load i8, ptr %27, align 1
  %29 = zext i8 %28 to i32
  store i32 %29, ptr %13, align 4
  %30 = load i32, ptr %13, align 4
  %31 = icmp eq i32 %30, 135
  br i1 %31, label %41, label %32

32:                                               ; preds = %16
  %33 = load i32, ptr %13, align 4
  %34 = icmp eq i32 %33, 136
  br i1 %34, label %41, label %35

35:                                               ; preds = %32
  %36 = load i32, ptr %13, align 4
  %37 = icmp eq i32 %36, 140
  br i1 %37, label %41, label %38

38:                                               ; preds = %35
  %39 = load i32, ptr %13, align 4
  %40 = icmp eq i32 %39, 141
  br i1 %40, label %41, label %51

41:                                               ; preds = %38, %35, %32, %16
  %42 = load ptr, ptr %12, align 8
  %43 = load i32, ptr %8, align 4
  %44 = load ptr, ptr %9, align 8
  %45 = load i32, ptr %10, align 4
  %46 = load i32, ptr %11, align 4
  %47 = call i32 @is_anchored(ptr noundef %42, i32 noundef %43, ptr noundef %44, i32 noundef %45, i32 noundef %46)
  %48 = icmp ne i32 %47, 0
  br i1 %48, label %50, label %49

49:                                               ; preds = %41
  store i32 0, ptr %6, align 4
  br label %233

50:                                               ; preds = %41
  br label %213

51:                                               ; preds = %38
  %52 = load i32, ptr %13, align 4
  %53 = icmp eq i32 %52, 137
  br i1 %53, label %63, label %54

54:                                               ; preds = %51
  %55 = load i32, ptr %13, align 4
  %56 = icmp eq i32 %55, 138
  br i1 %56, label %63, label %57

57:                                               ; preds = %54
  %58 = load i32, ptr %13, align 4
  %59 = icmp eq i32 %58, 142
  br i1 %59, label %63, label %60

60:                                               ; preds = %57
  %61 = load i32, ptr %13, align 4
  %62 = icmp eq i32 %61, 143
  br i1 %62, label %63, label %93

63:                                               ; preds = %60, %57, %54, %51
  %64 = load ptr, ptr %12, align 8
  %65 = getelementptr inbounds i8, ptr %64, i64 3
  %66 = load i8, ptr %65, align 1
  %67 = zext i8 %66 to i32
  %68 = shl i32 %67, 8
  %69 = load ptr, ptr %12, align 8
  %70 = getelementptr inbounds i8, ptr %69, i64 4
  %71 = load i8, ptr %70, align 1
  %72 = zext i8 %71 to i32
  %73 = or i32 %68, %72
  store i32 %73, ptr %14, align 4
  %74 = load i32, ptr %8, align 4
  %75 = load i32, ptr %14, align 4
  %76 = icmp slt i32 %75, 32
  br i1 %76, label %77, label %80

77:                                               ; preds = %63
  %78 = load i32, ptr %14, align 4
  %79 = shl i32 1, %78
  br label %81

80:                                               ; preds = %63
  br label %81

81:                                               ; preds = %80, %77
  %82 = phi i32 [ %79, %77 ], [ 1, %80 ]
  %83 = or i32 %74, %82
  store i32 %83, ptr %15, align 4
  %84 = load ptr, ptr %12, align 8
  %85 = load i32, ptr %15, align 4
  %86 = load ptr, ptr %9, align 8
  %87 = load i32, ptr %10, align 4
  %88 = load i32, ptr %11, align 4
  %89 = call i32 @is_anchored(ptr noundef %84, i32 noundef %85, ptr noundef %86, i32 noundef %87, i32 noundef %88)
  %90 = icmp ne i32 %89, 0
  br i1 %90, label %92, label %91

91:                                               ; preds = %81
  store i32 0, ptr %6, align 4
  br label %233

92:                                               ; preds = %81
  br label %212

93:                                               ; preds = %60
  %94 = load i32, ptr %13, align 4
  %95 = icmp eq i32 %94, 127
  br i1 %95, label %99, label %96

96:                                               ; preds = %93
  %97 = load i32, ptr %13, align 4
  %98 = icmp eq i32 %97, 131
  br i1 %98, label %99, label %108

99:                                               ; preds = %96, %93
  %100 = load ptr, ptr %12, align 8
  %101 = load i32, ptr %8, align 4
  %102 = load ptr, ptr %9, align 8
  %103 = load i32, ptr %10, align 4
  %104 = call i32 @is_anchored(ptr noundef %100, i32 noundef %101, ptr noundef %102, i32 noundef %103, i32 noundef 1)
  %105 = icmp ne i32 %104, 0
  br i1 %105, label %107, label %106

106:                                              ; preds = %99
  store i32 0, ptr %6, align 4
  br label %233

107:                                              ; preds = %99
  br label %211

108:                                              ; preds = %96
  %109 = load i32, ptr %13, align 4
  %110 = icmp eq i32 %109, 139
  br i1 %110, label %114, label %111

111:                                              ; preds = %108
  %112 = load i32, ptr %13, align 4
  %113 = icmp eq i32 %112, 144
  br i1 %113, label %114, label %142

114:                                              ; preds = %111, %108
  %115 = load ptr, ptr %12, align 8
  %116 = load ptr, ptr %12, align 8
  %117 = getelementptr inbounds i8, ptr %116, i64 1
  %118 = load i8, ptr %117, align 1
  %119 = zext i8 %118 to i32
  %120 = shl i32 %119, 8
  %121 = load ptr, ptr %12, align 8
  %122 = getelementptr inbounds i8, ptr %121, i64 2
  %123 = load i8, ptr %122, align 1
  %124 = zext i8 %123 to i32
  %125 = or i32 %120, %124
  %126 = zext i32 %125 to i64
  %127 = getelementptr inbounds i8, ptr %115, i64 %126
  %128 = load i8, ptr %127, align 1
  %129 = zext i8 %128 to i32
  %130 = icmp ne i32 %129, 120
  br i1 %130, label %131, label %132

131:                                              ; preds = %114
  store i32 0, ptr %6, align 4
  br label %233

132:                                              ; preds = %114
  %133 = load ptr, ptr %12, align 8
  %134 = load i32, ptr %8, align 4
  %135 = load ptr, ptr %9, align 8
  %136 = load i32, ptr %10, align 4
  %137 = load i32, ptr %11, align 4
  %138 = call i32 @is_anchored(ptr noundef %133, i32 noundef %134, ptr noundef %135, i32 noundef %136, i32 noundef %137)
  %139 = icmp ne i32 %138, 0
  br i1 %139, label %141, label %140

140:                                              ; preds = %132
  store i32 0, ptr %6, align 4
  br label %233

141:                                              ; preds = %132
  br label %210

142:                                              ; preds = %111
  %143 = load i32, ptr %13, align 4
  %144 = icmp eq i32 %143, 133
  br i1 %144, label %145, label %156

145:                                              ; preds = %142
  %146 = load ptr, ptr %12, align 8
  %147 = load i32, ptr %8, align 4
  %148 = load ptr, ptr %9, align 8
  %149 = load i32, ptr %10, align 4
  %150 = add nsw i32 %149, 1
  %151 = load i32, ptr %11, align 4
  %152 = call i32 @is_anchored(ptr noundef %146, i32 noundef %147, ptr noundef %148, i32 noundef %150, i32 noundef %151)
  %153 = icmp ne i32 %152, 0
  br i1 %153, label %155, label %154

154:                                              ; preds = %145
  store i32 0, ptr %6, align 4
  br label %233

155:                                              ; preds = %145
  br label %209

156:                                              ; preds = %142
  %157 = load i32, ptr %13, align 4
  %158 = icmp eq i32 %157, 85
  br i1 %158, label %165, label %159

159:                                              ; preds = %156
  %160 = load i32, ptr %13, align 4
  %161 = icmp eq i32 %160, 86
  br i1 %161, label %165, label %162

162:                                              ; preds = %159
  %163 = load i32, ptr %13, align 4
  %164 = icmp eq i32 %163, 94
  br i1 %164, label %165, label %197

165:                                              ; preds = %162, %159, %156
  %166 = load ptr, ptr %12, align 8
  %167 = getelementptr inbounds i8, ptr %166, i64 1
  %168 = load i8, ptr %167, align 1
  %169 = zext i8 %168 to i32
  %170 = icmp ne i32 %169, 13
  br i1 %170, label %195, label %171

171:                                              ; preds = %165
  %172 = load i32, ptr %8, align 4
  %173 = load ptr, ptr %9, align 8
  %174 = getelementptr inbounds %struct.compile_block_8, ptr %173, i32 0, i32 27
  %175 = load i32, ptr %174, align 4
  %176 = and i32 %172, %175
  %177 = icmp ne i32 %176, 0
  br i1 %177, label %195, label %178

178:                                              ; preds = %171
  %179 = load i32, ptr %10, align 4
  %180 = icmp sgt i32 %179, 0
  br i1 %180, label %195, label %181

181:                                              ; preds = %178
  %182 = load ptr, ptr %9, align 8
  %183 = getelementptr inbounds %struct.compile_block_8, ptr %182, i32 0, i32 37
  %184 = load i32, ptr %183, align 4
  %185 = icmp ne i32 %184, 0
  br i1 %185, label %195, label %186

186:                                              ; preds = %181
  %187 = load i32, ptr %11, align 4
  %188 = icmp ne i32 %187, 0
  br i1 %188, label %195, label %189

189:                                              ; preds = %186
  %190 = load ptr, ptr %9, align 8
  %191 = getelementptr inbounds %struct.compile_block_8, ptr %190, i32 0, i32 19
  %192 = load i32, ptr %191, align 4
  %193 = and i32 %192, 32768
  %194 = icmp ne i32 %193, 0
  br i1 %194, label %195, label %196

195:                                              ; preds = %189, %186, %181, %178, %171, %165
  store i32 0, ptr %6, align 4
  br label %233

196:                                              ; preds = %189
  br label %208

197:                                              ; preds = %162
  %198 = load i32, ptr %13, align 4
  %199 = icmp ne i32 %198, 1
  br i1 %199, label %200, label %207

200:                                              ; preds = %197
  %201 = load i32, ptr %13, align 4
  %202 = icmp ne i32 %201, 2
  br i1 %202, label %203, label %207

203:                                              ; preds = %200
  %204 = load i32, ptr %13, align 4
  %205 = icmp ne i32 %204, 27
  br i1 %205, label %206, label %207

206:                                              ; preds = %203
  store i32 0, ptr %6, align 4
  br label %233

207:                                              ; preds = %203, %200, %197
  br label %208

208:                                              ; preds = %207, %196
  br label %209

209:                                              ; preds = %208, %155
  br label %210

210:                                              ; preds = %209, %141
  br label %211

211:                                              ; preds = %210, %107
  br label %212

212:                                              ; preds = %211, %92
  br label %213

213:                                              ; preds = %212, %50
  %214 = load ptr, ptr %7, align 8
  %215 = getelementptr inbounds i8, ptr %214, i64 1
  %216 = load i8, ptr %215, align 1
  %217 = zext i8 %216 to i32
  %218 = shl i32 %217, 8
  %219 = load ptr, ptr %7, align 8
  %220 = getelementptr inbounds i8, ptr %219, i64 2
  %221 = load i8, ptr %220, align 1
  %222 = zext i8 %221 to i32
  %223 = or i32 %218, %222
  %224 = load ptr, ptr %7, align 8
  %225 = zext i32 %223 to i64
  %226 = getelementptr inbounds i8, ptr %224, i64 %225
  store ptr %226, ptr %7, align 8
  br label %227

227:                                              ; preds = %213
  %228 = load ptr, ptr %7, align 8
  %229 = load i8, ptr %228, align 1
  %230 = zext i8 %229 to i32
  %231 = icmp eq i32 %230, 120
  br i1 %231, label %16, label %232

232:                                              ; preds = %227
  store i32 1, ptr %6, align 4
  br label %233

233:                                              ; preds = %232, %206, %195, %154, %140, %131, %106, %91, %49
  %234 = load i32, ptr %6, align 4
  ret i32 %234
}