; Function Attrs: nofree nosync nounwind memory(read, inaccessiblemem: none) uwtable
define internal fastcc noundef i32 @is_anchored(ptr noundef readonly %0, i32 noundef %1, ptr noundef readonly %2, i32 noundef %3, i32 noundef %4) unnamed_addr #8 {
  %6 = getelementptr inbounds i8, ptr %2, i64 284
  %7 = getelementptr inbounds i8, ptr %2, i64 196
  %8 = add nsw i32 %3, 1
  %9 = getelementptr inbounds i8, ptr %2, i64 244
  %10 = icmp sgt i32 %3, 0
  %.pre = load i8, ptr %0, align 1
  %11 = zext i8 %.pre to i64
  br label %12

12:                                               ; preds = %66, %5
  %13 = phi i64 [ %11, %5 ], [ 120, %66 ]
  %.092 = phi ptr [ %0, %5 ], [ %75, %66 ]
  %14 = getelementptr inbounds [0 x i8], ptr @_pcre2_OP_lengths_8, i64 0, i64 %13
  %15 = load i8, ptr %14, align 1
  %16 = zext i8 %15 to i64
  %17 = getelementptr inbounds i8, ptr %.092, i64 %16
  %18 = tail call fastcc ptr @first_significant_code(ptr noundef nonnull %17, i32 noundef 0)
  %19 = load i8, ptr %18, align 1
  switch i8 %19, label %78 [
    i8 -115, label %20
    i8 -116, label %20
    i8 -120, label %20
    i8 -121, label %20
    i8 -113, label %22
    i8 -114, label %22
    i8 -118, label %22
    i8 -119, label %22
    i8 -125, label %36
    i8 127, label %36
    i8 -112, label %38
    i8 -117, label %38
    i8 -123, label %51
    i8 94, label %53
    i8 86, label %53
    i8 85, label %53
    i8 27, label %66
    i8 2, label %66
    i8 1, label %66
  ]

20:                                               ; preds = %12, %12, %12, %12
  %21 = tail call fastcc i32 @is_anchored(ptr noundef nonnull %18, i32 noundef %1, ptr noundef %2, i32 noundef %3, i32 noundef %4), !range !4
  %.not100 = icmp eq i32 %21, 0
  br i1 %.not100, label %78, label %66

22:                                               ; preds = %12, %12, %12, %12
  %23 = getelementptr inbounds i8, ptr %18, i64 3
  %24 = load i8, ptr %23, align 1
  %25 = zext i8 %24 to i32
  %26 = shl nuw nsw i32 %25, 8
  %27 = getelementptr inbounds i8, ptr %18, i64 4
  %28 = load i8, ptr %27, align 1
  %29 = zext i8 %28 to i32
  %30 = or disjoint i32 %26, %29
  %31 = icmp ult i32 %30, 32
  %32 = shl nuw i32 1, %30
  %33 = select i1 %31, i32 %32, i32 1
  %34 = or i32 %33, %1
  %35 = tail call fastcc i32 @is_anchored(ptr noundef nonnull %18, i32 noundef %34, ptr noundef %2, i32 noundef %3, i32 noundef %4), !range !4
  %.not99 = icmp eq i32 %35, 0
  br i1 %.not99, label %78, label %66

36:                                               ; preds = %12, %12
  %37 = tail call fastcc i32 @is_anchored(ptr noundef nonnull %18, i32 noundef %1, ptr noundef %2, i32 noundef %3, i32 noundef 1), !range !4
  %.not98 = icmp eq i32 %37, 0
  br i1 %.not98, label %78, label %66

38:                                               ; preds = %12, %12
  %39 = getelementptr inbounds i8, ptr %18, i64 1
  %40 = load i8, ptr %39, align 1
  %41 = zext i8 %40 to i64
  %42 = shl nuw nsw i64 %41, 8
  %43 = getelementptr inbounds i8, ptr %18, i64 2
  %44 = load i8, ptr %43, align 1
  %45 = zext i8 %44 to i64
  %46 = or disjoint i64 %42, %45
  %47 = getelementptr inbounds i8, ptr %18, i64 %46
  %48 = load i8, ptr %47, align 1
  %.not96 = icmp eq i8 %48, 120
  br i1 %.not96, label %49, label %78

49:                                               ; preds = %38
  %50 = tail call fastcc i32 @is_anchored(ptr noundef nonnull %18, i32 noundef %1, ptr noundef %2, i32 noundef %3, i32 noundef %4), !range !4
  %.not97 = icmp eq i32 %50, 0
  br i1 %.not97, label %78, label %66

51:                                               ; preds = %12
  %52 = tail call fastcc i32 @is_anchored(ptr noundef nonnull %18, i32 noundef %1, ptr noundef %2, i32 noundef %8, i32 noundef %4), !range !4
  %.not95 = icmp eq i32 %52, 0
  br i1 %.not95, label %78, label %66

53:                                               ; preds = %12, %12, %12
  %54 = getelementptr inbounds i8, ptr %18, i64 1
  %55 = load i8, ptr %54, align 1
  %.not = icmp eq i8 %55, 13
  br i1 %.not, label %56, label %78

56:                                               ; preds = %53
  %57 = load i32, ptr %9, align 4
  %58 = and i32 %57, %1
  %59 = icmp ne i32 %58, 0
  %or.cond21 = or i1 %10, %59
  br i1 %or.cond21, label %78, label %60

60:                                               ; preds = %56
  %61 = load i32, ptr %6, align 4
  %62 = or i32 %61, %4
  %or.cond23.not = icmp eq i32 %62, 0
  br i1 %or.cond23.not, label %63, label %78

63:                                               ; preds = %60
  %64 = load i32, ptr %7, align 4
  %65 = and i32 %64, 32768
  %.not94 = icmp eq i32 %65, 0
  br i1 %.not94, label %66, label %78

66:                                               ; preds = %12, %12, %12, %22, %49, %63, %51, %36, %20
  %67 = getelementptr inbounds i8, ptr %.092, i64 1
  %68 = load i8, ptr %67, align 1
  %69 = zext i8 %68 to i64
  %70 = shl nuw nsw i64 %69, 8
  %71 = getelementptr inbounds i8, ptr %.092, i64 2
  %72 = load i8, ptr %71, align 1
  %73 = zext i8 %72 to i64
  %74 = or disjoint i64 %70, %73
  %75 = getelementptr inbounds i8, ptr %.092, i64 %74
  %76 = load i8, ptr %75, align 1
  %77 = icmp eq i8 %76, 120
  br i1 %77, label %12, label %78

78:                                               ; preds = %12, %66, %53, %56, %60, %63, %51, %49, %38, %36, %22, %20
  %.0 = phi i32 [ 0, %20 ], [ 0, %22 ], [ 0, %36 ], [ 0, %38 ], [ 0, %49 ], [ 0, %51 ], [ 0, %63 ], [ 0, %60 ], [ 0, %56 ], [ 0, %53 ], [ 1, %66 ], [ 0, %12 ]
  ret i32 %.0
}